target datalayout = "e-m:e-p270:32:32-p271:32:32-p272:64:64-i64:64-i128:128-f80:128-n8:16:32:64-S128"
target triple = "x86_64-pc-linux-gnu"

%class.OopHandle = type { ptr }
%class.ThreadShadow = type <{ ptr, ptr, ptr, i32, [4 x i8] }>
%"class.AccessInternal::OopLoadProxy" = type { ptr }

@_ZN19CDSProtectionDomain16_shared_jar_urlsE = hidden global %class.OopHandle zeroinitializer, align 8
@_ZN9vmClasses8_klassesE = external global [0 x ptr], align 8
@_ZN14AccessInternal15RuntimeDispatchILm548932EP7oopDescLNS_11BarrierTypeE2EE10_load_funcE = linkonce_odr hidden global ptr @_ZN14AccessInternal15RuntimeDispatchILm548932EP7oopDescLNS_11BarrierTypeE2EE9load_initEPv, comdat, align 8
@.str.14 = private unnamed_addr constant [44 x i8] c"src/hotspot/share/oops/oopHandle.inline.hpp\00", align 1
@.str.15 = private unnamed_addr constant [25 x i8] c"Cannot create oop handle\00", align 1
@_ZN14AccessInternal15RuntimeDispatchILm548932EP7oopDescLNS_11BarrierTypeE0EE11_store_funcE = linkonce_odr hidden global ptr @_ZN14AccessInternal15RuntimeDispatchILm548932EP7oopDescLNS_11BarrierTypeE0EE10store_initEPvS2_, comdat, align 8

; Function Attrs: mustprogress nounwind uwtable
define linkonce_odr hidden void @_ZN16RawAccessBarrierILm68EE14store_internalILm68EP7oopDescEENSt9enable_ifIXsr12HasDecoratorIXT_EL_ZL12MO_UNORDEREDEEE5valueEvE4typeEPvT0_(ptr noundef %0, ptr noundef %1) #1 comdat align 2 {
  %3 = alloca ptr, align 8
  %4 = alloca ptr, align 8
  store ptr %0, ptr %3, align 8
  store ptr %1, ptr %4, align 8
  %5 = load ptr, ptr %4, align 8
  %6 = load ptr, ptr %3, align 8
  store ptr %5, ptr %6, align 8
  ret void
}

; Function Attrs: mustprogress nounwind uwtable
define linkonce_odr hidden noundef ptr @_ZN16RawAccessBarrierILm68EE15encode_internalILm68EP7oopDescEENSt9enable_ifIXntsr14AccessInternal24MustConvertCompressedOopIXT_ET0_EE5valueES5_E4typeES5_(ptr noundef %0) #1 comdat align 2 {
  %2 = alloca ptr, align 8
  store ptr %0, ptr %2, align 8
  %3 = load ptr, ptr %2, align 8
  ret ptr %3
}

; Function Attrs: mustprogress nounwind uwtable
define linkonce_odr hidden noundef ptr @_ZN16RawAccessBarrierILm68EE15decode_internalILm68EP7oopDescEENSt9enable_ifIXntsr14AccessInternal24MustConvertCompressedOopIXT_ET0_EE5valueES5_E4typeES5_(ptr noundef %0) #1 comdat align 2 {
  %2 = alloca ptr, align 8
  store ptr %0, ptr %2, align 8
  %3 = load ptr, ptr %2, align 8
  ret ptr %3
}

; Function Attrs: mustprogress nounwind uwtable
define linkonce_odr hidden noundef ptr @_ZN16RawAccessBarrierILm68EE13load_internalILm68EP7oopDescEENSt9enable_ifIXsr12HasDecoratorIXT_EL_ZL12MO_UNORDEREDEEE5valueET0_E4typeEPv(ptr noundef %0) #1 comdat align 2 {
  %2 = alloca ptr, align 8
  store ptr %0, ptr %2, align 8
  %3 = load ptr, ptr %2, align 8
  %4 = load ptr, ptr %3, align 8
  ret ptr %4
}

; Function Attrs: mustprogress nounwind uwtable
define linkonce_odr hidden void @_ZN16RawAccessBarrierILm68EE5storeIP7oopDescEEvPvT_(ptr noundef %0, ptr noundef %1) #1 comdat align 2 {
  %3 = alloca ptr, align 8
  %4 = alloca ptr, align 8
  store ptr %0, ptr %3, align 8
  store ptr %1, ptr %4, align 8
  %5 = load ptr, ptr %3, align 8
  %6 = load ptr, ptr %4, align 8
  call void @_ZN16RawAccessBarrierILm68EE14store_internalILm68EP7oopDescEENSt9enable_ifIXsr12HasDecoratorIXT_EL_ZL12MO_UNORDEREDEEE5valueEvE4typeEPvT0_(ptr noundef %5, ptr noundef %6)
  ret void
}

; Function Attrs: mustprogress nounwind uwtable
define linkonce_odr hidden noundef ptr @_ZN16RawAccessBarrierILm68EE6encodeIP7oopDescEEN14AccessInternal11EncodedTypeILm68ET_E4typeES6_(ptr noundef %0) #1 comdat align 2 {
  %2 = alloca ptr, align 8
  store ptr %0, ptr %2, align 8
  %3 = load ptr, ptr %2, align 8
  %4 = call noundef ptr @_ZN16RawAccessBarrierILm68EE15encode_internalILm68EP7oopDescEENSt9enable_ifIXntsr14AccessInternal24MustConvertCompressedOopIXT_ET0_EE5valueES5_E4typeES5_(ptr noundef %3)
  ret ptr %4
}

; Function Attrs: mustprogress nounwind uwtable
define linkonce_odr hidden noundef ptr @_ZN16RawAccessBarrierILm68EE6decodeIP7oopDescEET_N14AccessInternal11EncodedTypeILm68ES4_E4typeE(ptr noundef %0) #1 comdat align 2 {
  %2 = alloca ptr, align 8
  store ptr %0, ptr %2, align 8
  %3 = load ptr, ptr %2, align 8
  %4 = call noundef ptr @_ZN16RawAccessBarrierILm68EE15decode_internalILm68EP7oopDescEENSt9enable_ifIXntsr14AccessInternal24MustConvertCompressedOopIXT_ET0_EE5valueES5_E4typeES5_(ptr noundef %3)
  ret ptr %4
}

; Function Attrs: mustprogress nounwind uwtable
define linkonce_odr hidden noundef ptr @_ZN16RawAccessBarrierILm68EE4loadIP7oopDescEET_Pv(ptr noundef %0) #1 comdat align 2 {
  %2 = alloca ptr, align 8
  store ptr %0, ptr %2, align 8
  %3 = load ptr, ptr %2, align 8
  %4 = call noundef ptr @_ZN16RawAccessBarrierILm68EE13load_internalILm68EP7oopDescEENSt9enable_ifIXsr12HasDecoratorIXT_EL_ZL12MO_UNORDEREDEEE5valueET0_E4typeEPv(ptr noundef %3)
  ret ptr %4
}

; Function Attrs: mustprogress nounwind uwtable
define linkonce_odr hidden void @_ZN16RawAccessBarrierILm68EE9oop_storeIP7oopDescEEvPvT_(ptr noundef %0, ptr noundef %1) #1 comdat align 2 {
  %3 = alloca ptr, align 8
  %4 = alloca ptr, align 8
  %5 = alloca ptr, align 8
  store ptr %0, ptr %3, align 8
  store ptr %1, ptr %4, align 8
  %6 = load ptr, ptr %4, align 8
  %7 = call noundef ptr @_ZN16RawAccessBarrierILm68EE6encodeIP7oopDescEEN14AccessInternal11EncodedTypeILm68ET_E4typeES6_(ptr noundef %6)
  store ptr %7, ptr %5, align 8
  %8 = load ptr, ptr %3, align 8
  %9 = load ptr, ptr %5, align 8
  call void @_ZN16RawAccessBarrierILm68EE5storeIP7oopDescEEvPvT_(ptr noundef %8, ptr noundef %9)
  ret void
}

; Function Attrs: mustprogress nounwind uwtable
define linkonce_odr hidden noundef ptr @_ZN16RawAccessBarrierILm68EE8oop_loadIP7oopDescEET_Pv(ptr noundef %0) #1 comdat align 2 {
  %2 = alloca ptr, align 8
  %3 = alloca ptr, align 8
  store ptr %0, ptr %2, align 8
  %4 = load ptr, ptr %2, align 8
  %5 = call noundef ptr @_ZN16RawAccessBarrierILm68EE4loadIP7oopDescEET_Pv(ptr noundef %4)
  store ptr %5, ptr %3, align 8
  %6 = load ptr, ptr %3, align 8
  %7 = call noundef ptr @_ZN16RawAccessBarrierILm68EE6decodeIP7oopDescEET_N14AccessInternal11EncodedTypeILm68ES4_E4typeE(ptr noundef %6)
  ret ptr %7
}

; Function Attrs: mustprogress nounwind uwtable
define linkonce_odr hidden void @_ZN14AccessInternal15RuntimeDispatchILm548932EP7oopDescLNS_11BarrierTypeE0EE5storeEPvS2_(ptr noundef %0, ptr noundef %1) #1 comdat align 2 {
  %3 = alloca ptr, align 8
  %4 = alloca ptr, align 8
  store ptr %0, ptr %3, align 8
  store ptr %1, ptr %4, align 8
  %5 = load ptr, ptr @_ZN14AccessInternal15RuntimeDispatchILm548932EP7oopDescLNS_11BarrierTypeE0EE11_store_funcE, align 8
  %6 = load ptr, ptr %3, align 8
  %7 = load ptr, ptr %4, align 8
  call void %5(ptr noundef %6, ptr noundef %7)
  ret void
}

; Function Attrs: mustprogress nounwind uwtable
define linkonce_odr hidden void @_ZN14AccessInternal18PreRuntimeDispatch5storeILm550980EP7oopDescEENSt9enable_ifIXaasr12HasDecoratorIXT_EL_ZL6AS_RAWEEE5valuesr14CanHardwireRawIXT_EEE5valueEvE4typeEPvT0_(ptr noundef %0, ptr noundef %1) #1 comdat align 2 {
  %3 = alloca ptr, align 8
  %4 = alloca ptr, align 8
  store ptr %0, ptr %3, align 8
  store ptr %1, ptr %4, align 8
  %5 = load ptr, ptr %3, align 8
  %6 = load ptr, ptr %4, align 8
  call void @_ZN16RawAccessBarrierILm68EE9oop_storeIP7oopDescEEvPvT_(ptr noundef %5, ptr noundef %6)
  ret void
}

; Function Attrs: mustprogress nounwind uwtable
define linkonce_odr hidden noundef ptr @_ZN14AccessInternal15RuntimeDispatchILm548932EP7oopDescLNS_11BarrierTypeE2EE4loadEPv(ptr noundef %0) #1 comdat align 2 {
  %2 = alloca ptr, align 8
  store ptr %0, ptr %2, align 8
  %3 = load ptr, ptr @_ZN14AccessInternal15RuntimeDispatchILm548932EP7oopDescLNS_11BarrierTypeE2EE10_load_funcE, align 8
  %4 = load ptr, ptr %2, align 8
  %5 = call noundef ptr %3(ptr noundef %4)
  ret ptr %5
}

; Function Attrs: mustprogress nounwind uwtable
define linkonce_odr hidden noundef ptr @_ZN14AccessInternal18PreRuntimeDispatch4loadILm550980EP7oopDescEENSt9enable_ifIXaasr12HasDecoratorIXT_EL_ZL6AS_RAWEEE5valuesr14CanHardwireRawIXT_EEE5valueET0_E4typeEPv(ptr noundef %0) #1 comdat align 2 {
  %2 = alloca ptr, align 8
  store ptr %0, ptr %2, align 8
  %3 = load ptr, ptr %2, align 8
  %4 = call noundef ptr @_ZN16RawAccessBarrierILm68EE8oop_loadIP7oopDescEET_Pv(ptr noundef %3)
  ret ptr %4
}

; Function Attrs: mustprogress nounwind uwtable
define linkonce_odr hidden noundef zeroext i1 @_ZN14AccessInternal18PreRuntimeDispatch22is_hardwired_primitiveILm548932EEEbv() #1 comdat align 2 {
  ret i1 false
}

; Function Attrs: mustprogress nounwind uwtable
define linkonce_odr hidden void @_ZN14AccessInternal18PreRuntimeDispatch5storeILm548932EP7oopDescEENSt9enable_ifIXntsr12HasDecoratorIXT_EL_ZL6AS_RAWEEE5valueEvE4typeEPvT0_(ptr noundef %0, ptr noundef %1) #1 comdat align 2 {
  %3 = alloca ptr, align 8
  %4 = alloca ptr, align 8
  %5 = alloca i64, align 8
  store ptr %0, ptr %3, align 8
  store ptr %1, ptr %4, align 8
  %6 = call noundef zeroext i1 @_ZN14AccessInternal18PreRuntimeDispatch22is_hardwired_primitiveILm548932EEEbv()
  br i1 %6, label %7, label %10

7:                                                ; preds = %2
  store i64 550980, ptr %5, align 8
  %8 = load ptr, ptr %3, align 8
  %9 = load ptr, ptr %4, align 8
  call void @_ZN14AccessInternal18PreRuntimeDispatch5storeILm550980EP7oopDescEENSt9enable_ifIXaasr12HasDecoratorIXT_EL_ZL6AS_RAWEEE5valuesr14CanHardwireRawIXT_EEE5valueEvE4typeEPvT0_(ptr noundef %8, ptr noundef %9)
  br label %13

10:                                               ; preds = %2
  %11 = load ptr, ptr %3, align 8
  %12 = load ptr, ptr %4, align 8
  call void @_ZN14AccessInternal15RuntimeDispatchILm548932EP7oopDescLNS_11BarrierTypeE0EE5storeEPvS2_(ptr noundef %11, ptr noundef %12)
  br label %13

13:                                               ; preds = %10, %7
  ret void
}

; Function Attrs: mustprogress nounwind uwtable
define linkonce_odr hidden noundef ptr @_ZN14AccessInternal18PreRuntimeDispatch4loadILm548932EP7oopDescEENSt9enable_ifIXntsr12HasDecoratorIXT_EL_ZL6AS_RAWEEE5valueET0_E4typeEPv(ptr noundef %0) #1 comdat align 2 {
  %2 = alloca ptr, align 8
  %3 = alloca ptr, align 8
  %4 = alloca i64, align 8
  store ptr %0, ptr %3, align 8
  %5 = call noundef zeroext i1 @_ZN14AccessInternal18PreRuntimeDispatch22is_hardwired_primitiveILm548932EEEbv()
  br i1 %5, label %6, label %9

6:                                                ; preds = %1
  store i64 550980, ptr %4, align 8
  %7 = load ptr, ptr %3, align 8
  %8 = call noundef ptr @_ZN14AccessInternal18PreRuntimeDispatch4loadILm550980EP7oopDescEENSt9enable_ifIXaasr12HasDecoratorIXT_EL_ZL6AS_RAWEEE5valuesr14CanHardwireRawIXT_EEE5valueET0_E4typeEPv(ptr noundef %7)
  store ptr %8, ptr %2, align 8
  br label %12

9:                                                ; preds = %1
  %10 = load ptr, ptr %3, align 8
  %11 = call noundef ptr @_ZN14AccessInternal15RuntimeDispatchILm548932EP7oopDescLNS_11BarrierTypeE2EE4loadEPv(ptr noundef %10)
  store ptr %11, ptr %2, align 8
  br label %12

12:                                               ; preds = %9, %6
  %13 = load ptr, ptr %2, align 8
  ret ptr %13
}

; Function Attrs: mustprogress nounwind uwtable
define linkonce_odr hidden void @_ZN14AccessInternal18store_reduce_typesILm548932EP7oopDescEEvPT0_S3_(ptr noundef %0, ptr noundef %1) #1 comdat {
  %3 = alloca ptr, align 8
  %4 = alloca ptr, align 8
  store ptr %0, ptr %3, align 8
  store ptr %1, ptr %4, align 8
  %5 = load ptr, ptr %3, align 8
  %6 = load ptr, ptr %4, align 8
  call void @_ZN14AccessInternal18PreRuntimeDispatch5storeILm548932EP7oopDescEENSt9enable_ifIXntsr12HasDecoratorIXT_EL_ZL6AS_RAWEEE5valueEvE4typeEPvT0_(ptr noundef %5, ptr noundef %6)
  ret void
}

; Function Attrs: mustprogress nounwind uwtable
define linkonce_odr hidden void @_ZN6AccessILm524288EE17verify_decoratorsILm16645824EEEvv() #1 comdat align 2 {
  %1 = alloca i64, align 8
  %2 = alloca i64, align 8
  %3 = alloca i64, align 8
  %4 = alloca i64, align 8
  store i64 0, ptr %1, align 8
  store i64 0, ptr %2, align 8
  store i64 0, ptr %3, align 8
  store i64 524288, ptr %4, align 8
  ret void
}

; Function Attrs: mustprogress nounwind uwtable
define linkonce_odr hidden noundef ptr @_ZN14AccessInternal17load_reduce_typesILm548932EP7oopDescEET0_PS3_(ptr noundef %0) #1 comdat {
  %2 = alloca ptr, align 8
  store ptr %0, ptr %2, align 8
  %3 = load ptr, ptr %2, align 8
  %4 = call noundef ptr @_ZN14AccessInternal18PreRuntimeDispatch4loadILm548932EP7oopDescEENSt9enable_ifIXntsr12HasDecoratorIXT_EL_ZL6AS_RAWEEE5valueET0_E4typeEPv(ptr noundef %3)
  ret ptr %4
}

; Function Attrs: mustprogress nounwind uwtable
define internal void @_ZN14AccessInternalL12verify_typesILm524292EP7oopDescEEvv() #1 {
  ret void
}

; Function Attrs: mustprogress nounwind uwtable
define linkonce_odr hidden void @_ZN6AccessILm524288EE17verify_decoratorsILm16645568EEEvv() #1 comdat align 2 {
  %1 = alloca i64, align 8
  %2 = alloca i64, align 8
  %3 = alloca i64, align 8
  %4 = alloca i64, align 8
  store i64 0, ptr %1, align 8
  store i64 0, ptr %2, align 8
  store i64 0, ptr %3, align 8
  store i64 524288, ptr %4, align 8
  ret void
}

; Function Attrs: mustprogress nounwind uwtable
define linkonce_odr hidden void @_ZN14AccessInternal5storeILm524292EP7oopDescS2_EEvPT0_T1_(ptr noundef %0, ptr noundef %1) #1 comdat {
  %3 = alloca ptr, align 8
  %4 = alloca ptr, align 8
  %5 = alloca ptr, align 8
  %6 = alloca i64, align 8
  store ptr %0, ptr %3, align 8
  store ptr %1, ptr %4, align 8
  call void @_ZN14AccessInternalL12verify_typesILm524292EP7oopDescEEvv()
  %7 = load ptr, ptr %4, align 8
  store ptr %7, ptr %5, align 8
  store i64 548932, ptr %6, align 8
  %8 = load ptr, ptr %3, align 8
  %9 = load ptr, ptr %5, align 8
  call void @_ZN14AccessInternal18store_reduce_typesILm548932EP7oopDescEEvPT0_S3_(ptr noundef %8, ptr noundef %9)
  ret void
}

; Function Attrs: mustprogress nounwind uwtable
define linkonce_odr hidden void @_ZN6AccessILm524288EE21verify_oop_decoratorsILm1728EEEvv() #1 comdat align 2 {
  %1 = alloca i64, align 8
  store i64 16644096, ptr %1, align 8
  call void @_ZN6AccessILm524288EE17verify_decoratorsILm16645824EEEvv()
  ret void
}

; Function Attrs: mustprogress nounwind uwtable
define linkonce_odr hidden noundef ptr @_ZN14AccessInternal4loadILm524292EP7oopDescS2_EET1_PT0_(ptr noundef %0) #1 comdat {
  %2 = alloca ptr, align 8
  %3 = alloca i64, align 8
  store ptr %0, ptr %2, align 8
  call void @_ZN14AccessInternalL12verify_typesILm524292EP7oopDescEEvv()
  store i64 548932, ptr %3, align 8
  %4 = load ptr, ptr %2, align 8
  %5 = call noundef ptr @_ZN14AccessInternal17load_reduce_typesILm548932EP7oopDescEET0_PS3_(ptr noundef %4)
  ret ptr %5
}

; Function Attrs: mustprogress nounwind uwtable
define linkonce_odr hidden void @_ZN14AccessInternal12OopLoadProxyIP7oopDescLm524288EEC2EPS2_(ptr noundef nonnull align 8 dereferenceable(8) %0, ptr noundef %1) unnamed_addr #1 comdat align 2 {
  %3 = alloca ptr, align 8
  %4 = alloca ptr, align 8
  store ptr %0, ptr %3, align 8
  store ptr %1, ptr %4, align 8
  %5 = load ptr, ptr %3, align 8
  %6 = getelementptr inbounds %"class.AccessInternal::OopLoadProxy", ptr %5, i32 0, i32 0
  %7 = load ptr, ptr %4, align 8
  store ptr %7, ptr %6, align 8
  ret void
}

; Function Attrs: mustprogress nounwind uwtable
define linkonce_odr hidden void @_ZN6AccessILm524288EE21verify_oop_decoratorsILm1472EEEvv() #1 comdat align 2 {
  %1 = alloca i64, align 8
  store i64 16644096, ptr %1, align 8
  call void @_ZN6AccessILm524288EE17verify_decoratorsILm16645568EEEvv()
  ret void
}

; Function Attrs: mustprogress nounwind uwtable
define linkonce_odr hidden void @_ZN6AccessILm524288EE9oop_storeIP7oopDescS3_EEvPT_T0_(ptr noundef %0, ptr noundef %1) #1 comdat align 2 {
  %3 = alloca ptr, align 8
  %4 = alloca ptr, align 8
  %5 = alloca ptr, align 8
  store ptr %0, ptr %3, align 8
  store ptr %1, ptr %4, align 8
  call void @_ZN6AccessILm524288EE21verify_oop_decoratorsILm1728EEEvv()
  %6 = load ptr, ptr %4, align 8
  store ptr %6, ptr %5, align 8
  %7 = load ptr, ptr %3, align 8
  %8 = load ptr, ptr %5, align 8
  call void @_ZN14AccessInternal5storeILm524292EP7oopDescS2_EEvPT0_T1_(ptr noundef %7, ptr noundef %8)
  ret void
}

; Function Attrs: mustprogress nounwind uwtable
define linkonce_odr hidden noundef ptr @_ZN9vmClasses11check_klassEP13InstanceKlass(ptr noundef %0) #1 comdat align 2 {
  %2 = alloca ptr, align 8
  store ptr %0, ptr %2, align 8
  %3 = load ptr, ptr %2, align 8
  ret ptr %3
}

; Function Attrs: mustprogress nounwind uwtable
define linkonce_odr hidden noundef ptr @_ZN14AccessInternal12OopLoadProxyIP7oopDescLm524288EEcvS2_Ev(ptr noundef nonnull align 8 dereferenceable(8) %0) #1 comdat align 2 {
  %2 = alloca ptr, align 8
  store ptr %0, ptr %2, align 8
  %3 = load ptr, ptr %2, align 8
  %4 = getelementptr inbounds %"class.AccessInternal::OopLoadProxy", ptr %3, i32 0, i32 0
  %5 = load ptr, ptr %4, align 8
  %6 = call noundef ptr @_ZN14AccessInternal4loadILm524292EP7oopDescS2_EET1_PT0_(ptr noundef %5)
  ret ptr %6
}

; Function Attrs: mustprogress nounwind uwtable
define linkonce_odr hidden ptr @_ZN6AccessILm524288EE8oop_loadIP7oopDescEEN14AccessInternal12OopLoadProxyIT_Lm524288EEEPS6_(ptr noundef %0) #1 comdat align 2 {
  %2 = alloca %"class.AccessInternal::OopLoadProxy", align 8
  %3 = alloca ptr, align 8
  store ptr %0, ptr %3, align 8
  call void @_ZN6AccessILm524288EE21verify_oop_decoratorsILm1472EEEvv()
  %4 = load ptr, ptr %3, align 8
  call void @_ZN14AccessInternal12OopLoadProxyIP7oopDescLm524288EEC2EPS2_(ptr noundef nonnull align 8 dereferenceable(8) %2, ptr noundef %4)
  %5 = getelementptr inbounds %"class.AccessInternal::OopLoadProxy", ptr %2, i32 0, i32 0
  %6 = load ptr, ptr %5, align 8
  ret ptr %6
}

; Function Attrs: mustprogress nounwind uwtable
define linkonce_odr hidden noundef nonnull align 8 dereferenceable(8) ptr @_ZN9OopHandleaSERKS_(ptr noundef nonnull align 8 dereferenceable(8) %0, ptr noundef nonnull align 8 dereferenceable(8) %1) #1 comdat align 2 {
  %3 = alloca ptr, align 8
  %4 = alloca ptr, align 8
  store ptr %0, ptr %3, align 8
  store ptr %1, ptr %4, align 8
  %5 = load ptr, ptr %3, align 8
  %6 = load ptr, ptr %4, align 8
  %7 = getelementptr inbounds %class.OopHandle, ptr %6, i32 0, i32 0
  %8 = load ptr, ptr %7, align 8
  %9 = getelementptr inbounds %class.OopHandle, ptr %5, i32 0, i32 0
  store ptr %8, ptr %9, align 8
  ret ptr %5
}

; Function Attrs: mustprogress nounwind uwtable
define linkonce_odr hidden void @_ZN9OopHandleC2EP10OopStorageP7oopDesc(ptr noundef nonnull align 8 dereferenceable(8) %0, ptr noundef %1, ptr noundef %2) unnamed_addr #1 comdat align 2 {
  %4 = alloca ptr, align 8
  %5 = alloca ptr, align 8
  %6 = alloca ptr, align 8
  store ptr %0, ptr %4, align 8
  store ptr %1, ptr %5, align 8
  store ptr %2, ptr %6, align 8
  %7 = load ptr, ptr %4, align 8
  %8 = getelementptr inbounds %class.OopHandle, ptr %7, i32 0, i32 0
  %9 = load ptr, ptr %5, align 8
  %10 = call noundef ptr @_ZN10OopStorage8allocateEv(ptr noundef nonnull align 8 dereferenceable(126) %9)
  store ptr %10, ptr %8, align 8
  %11 = getelementptr inbounds %class.OopHandle, ptr %7, i32 0, i32 0
  %12 = load ptr, ptr %11, align 8
  %13 = icmp eq ptr %12, null
  br i1 %13, label %14, label %17

14:                                               ; preds = %3
  br label %15

15:                                               ; preds = %14
  call void (ptr, i32, i64, i32, ptr, ...) @_Z23report_vm_out_of_memoryPKcim11VMErrorTypeS0_z(ptr noundef @.str.14, i32 noundef 45, i64 noundef 8, i32 noundef -536870911, ptr noundef @.str.15) #9
  unreachable

16:                                               ; No predecessors!
  br label %17

17:                                               ; preds = %16, %3
  %18 = getelementptr inbounds %class.OopHandle, ptr %7, i32 0, i32 0
  %19 = load ptr, ptr %18, align 8
  %20 = load ptr, ptr %6, align 8
  call void @_ZN6AccessILm524288EE9oop_storeIP7oopDescS3_EEvPT_T0_(ptr noundef %19, ptr noundef %20)
  ret void
}

; Function Attrs: mustprogress nounwind uwtable
define linkonce_odr hidden noundef zeroext i1 @_ZNK12ThreadShadow21has_pending_exceptionEv(ptr noundef nonnull align 8 dereferenceable(28) %0) #1 comdat align 2 {
  %2 = alloca ptr, align 8
  store ptr %0, ptr %2, align 8
  %3 = load ptr, ptr %2, align 8
  %4 = getelementptr inbounds %class.ThreadShadow, ptr %3, i32 0, i32 1
  %5 = load ptr, ptr %4, align 8
  %6 = icmp ne ptr %5, null
  ret i1 %6
}

; Function Attrs: mustprogress nounwind uwtable
define linkonce_odr hidden noundef ptr @_ZN9vmClasses9URL_klassEv() #1 comdat align 2 {
  %1 = load ptr, ptr getelementptr inbounds ([0 x ptr], ptr @_ZN9vmClasses8_klassesE, i64 0, i64 82), align 8
  %2 = call noundef ptr @_ZN9vmClasses11check_klassEP13InstanceKlass(ptr noundef %1)
  ret ptr %2
}

; Function Attrs: mustprogress nounwind uwtable
define linkonce_odr hidden noundef ptr @_ZNK9OopHandle7resolveEv(ptr noundef nonnull align 8 dereferenceable(8) %0) #1 comdat align 2 {
  %2 = alloca ptr, align 8
  %3 = alloca %"class.AccessInternal::OopLoadProxy", align 8
  store ptr %0, ptr %2, align 8
  %4 = load ptr, ptr %2, align 8
  %5 = getelementptr inbounds %class.OopHandle, ptr %4, i32 0, i32 0
  %6 = load ptr, ptr %5, align 8
  %7 = icmp eq ptr %6, null
  br i1 %7, label %8, label %9

8:                                                ; preds = %1
  br label %15

9:                                                ; preds = %1
  %10 = getelementptr inbounds %class.OopHandle, ptr %4, i32 0, i32 0
  %11 = load ptr, ptr %10, align 8
  %12 = call ptr @_ZN6AccessILm524288EE8oop_loadIP7oopDescEEN14AccessInternal12OopLoadProxyIT_Lm524288EEEPS6_(ptr noundef %11)
  %13 = getelementptr inbounds %"class.AccessInternal::OopLoadProxy", ptr %3, i32 0, i32 0
  store ptr %12, ptr %13, align 8
  %14 = call noundef ptr @_ZN14AccessInternal12OopLoadProxyIP7oopDescLm524288EEcvS2_Ev(ptr noundef nonnull align 8 dereferenceable(8) %3)
  br label %15

15:                                               ; preds = %9, %8
  %16 = phi ptr [ null, %8 ], [ %14, %9 ]
  ret ptr %16
}

; Function Attrs: mustprogress nounwind uwtable
define hidden void @_ZN19CDSProtectionDomain29allocate_shared_jar_url_arrayEiP10JavaThread(i32 noundef %0, ptr noundef %1) #1 align 2 {
  %3 = alloca i32, align 4
  %4 = alloca ptr, align 8
  %5 = alloca ptr, align 8
  %6 = alloca %class.OopHandle, align 8
  store i32 %0, ptr %3, align 4
  store ptr %1, ptr %4, align 8
  %7 = call noundef ptr @_ZNK9OopHandle7resolveEv(ptr noundef nonnull align 8 dereferenceable(8) @_ZN19CDSProtectionDomain16_shared_jar_urlsE)
  %8 = icmp eq ptr %7, null
  br i1 %8, label %9, label %21

9:                                                ; preds = %2
  %10 = call noundef ptr @_ZN9vmClasses9URL_klassEv()
  %11 = load i32, ptr %3, align 4
  %12 = load ptr, ptr %4, align 8
  %13 = call noundef ptr @_ZN10oopFactory12new_objArrayEP5KlassiP10JavaThread(ptr noundef %10, i32 noundef %11, ptr noundef %12)
  store ptr %13, ptr %5, align 8
  %14 = load ptr, ptr %4, align 8
  %15 = call noundef zeroext i1 @_ZNK12ThreadShadow21has_pending_exceptionEv(ptr noundef nonnull align 8 dereferenceable(28) %14)
  br i1 %15, label %16, label %17

16:                                               ; preds = %9
  br label %21

17:                                               ; preds = %9
  %18 = call noundef ptr @_ZN8Universe9vm_globalEv()
  %19 = load ptr, ptr %5, align 8
  call void @_ZN9OopHandleC2EP10OopStorageP7oopDesc(ptr noundef nonnull align 8 dereferenceable(8) %6, ptr noundef %18, ptr noundef %19)
  %20 = call noundef nonnull align 8 dereferenceable(8) ptr @_ZN9OopHandleaSERKS_(ptr noundef nonnull align 8 dereferenceable(8) @_ZN19CDSProtectionDomain16_shared_jar_urlsE, ptr noundef nonnull align 8 dereferenceable(8) %6)
  br label %21

21:                                               ; preds = %17, %16, %2
  ret void
}