; Function Attrs: mustprogress nounwind uwtable
define hidden void @_ZN19CDSProtectionDomain29allocate_shared_jar_url_arrayEiP10JavaThread(i32 noundef %0, ptr noundef %1) local_unnamed_addr #0 align 2 {
  %3 = load ptr, ptr @_ZN19CDSProtectionDomain16_shared_jar_urlsE, align 8
  %4 = icmp eq ptr %3, null
  br i1 %4, label %_ZNK9OopHandle7resolveEv.exit.thread, label %_ZNK9OopHandle7resolveEv.exit

_ZNK9OopHandle7resolveEv.exit:                    ; preds = %2
  %5 = load ptr, ptr @_ZN14AccessInternal15RuntimeDispatchILm548932EP7oopDescLNS_11BarrierTypeE2EE10_load_funcE, align 8
  %6 = tail call noundef ptr %5(ptr noundef nonnull %3) #7
  %7 = icmp eq ptr %6, null
  br i1 %7, label %_ZNK9OopHandle7resolveEv.exit.thread, label %18

_ZNK9OopHandle7resolveEv.exit.thread:             ; preds = %2, %_ZNK9OopHandle7resolveEv.exit
  %8 = load ptr, ptr getelementptr inbounds (i8, ptr @_ZN9vmClasses8_klassesE, i64 656), align 8
  %9 = tail call noundef ptr @_ZN10oopFactory12new_objArrayEP5KlassiP10JavaThread(ptr noundef %8, i32 noundef %0, ptr noundef %1) #7
  %10 = getelementptr inbounds i8, ptr %1, i64 8
  %11 = load ptr, ptr %10, align 8
  %.not = icmp eq ptr %11, null
  br i1 %.not, label %12, label %18

12:                                               ; preds = %_ZNK9OopHandle7resolveEv.exit.thread
  %13 = tail call noundef ptr @_ZN8Universe9vm_globalEv() #7
  %14 = tail call noundef ptr @_ZN10OopStorage8allocateEv(ptr noundef nonnull align 8 dereferenceable(126) %13) #7
  %15 = icmp eq ptr %14, null
  br i1 %15, label %16, label %_ZN9OopHandleC2EP10OopStorageP7oopDesc.exit

16:                                               ; preds = %12
  tail call void (ptr, i32, i64, i32, ptr, ...) @_Z23report_vm_out_of_memoryPKcim11VMErrorTypeS0_z(ptr noundef nonnull @.str.14, i32 noundef 45, i64 noundef 8, i32 noundef -536870911, ptr noundef nonnull @.str.15) #8
  unreachable

_ZN9OopHandleC2EP10OopStorageP7oopDesc.exit:      ; preds = %12
  %17 = load ptr, ptr @_ZN14AccessInternal15RuntimeDispatchILm548932EP7oopDescLNS_11BarrierTypeE0EE11_store_funcE, align 8
  tail call void %17(ptr noundef nonnull %14, ptr noundef %9) #7
  store ptr %14, ptr @_ZN19CDSProtectionDomain16_shared_jar_urlsE, align 8
  br label %18

18:                                               ; preds = %_ZNK9OopHandle7resolveEv.exit.thread, %_ZN9OopHandleC2EP10OopStorageP7oopDesc.exit, %_ZNK9OopHandle7resolveEv.exit
  ret void
}